; Function Attrs: nofree nounwind uwtable
define void @Dar_ObjCutPrint(ptr noundef readnone captures(none) %0, ptr noundef readonly captures(none) %1) local_unnamed_addr #0 {
  %3 = getelementptr inbounds nuw i8, ptr %1, i64 36
  %4 = load i32, ptr %3, align 4, !tbaa !9
  %5 = tail call i32 (ptr, ...) @printf(ptr noundef nonnull dereferenceable(1) @.str.3, i32 noundef %4)
  %6 = getelementptr inbounds nuw i8, ptr %1, i64 24
  %7 = load i64, ptr %6, align 8
  %.not = icmp ult i64 %7, 72057594037927936
  br i1 %.not, label %._crit_edge, label %.lr.ph.preheader

.lr.ph.preheader:                                 ; preds = %2
  %8 = getelementptr i8, ptr %1, i64 40
  %.val = load ptr, ptr %8, align 8, !tbaa !13
  br label %.lr.ph

.lr.ph:                                           ; preds = %.lr.ph.preheader, %25
  %9 = phi i64 [ %26, %25 ], [ %7, %.lr.ph.preheader ]
  %.010 = phi i32 [ %27, %25 ], [ 0, %.lr.ph.preheader ]
  %.078 = phi ptr [ %28, %25 ], [ %.val, %.lr.ph.preheader ]
  %10 = getelementptr inbounds nuw i8, ptr %.078, i64 4
  %11 = load i32, ptr %10, align 4
  %12 = and i32 %11, 268435456
  %13 = icmp eq i32 %12, 0
  br i1 %13, label %25, label %14

14:                                               ; preds = %.lr.ph
  %putchar.i = tail call i32 @putchar(i32 123)
  %15 = load i32, ptr %10, align 4
  %.not.i = icmp ult i32 %15, 536870912
  br i1 %.not.i, label %Dar_CutPrint.exit, label %.lr.ph.i

.lr.ph.i:                                         ; preds = %14
  %16 = getelementptr inbounds nuw i8, ptr %.078, i64 8
  br label %17

17:                                               ; preds = %17, %.lr.ph.i
  %indvars.iv.i = phi i64 [ 0, %.lr.ph.i ], [ %indvars.iv.next.i, %17 ]
  %18 = getelementptr inbounds nuw [4 x i32], ptr %16, i64 0, i64 %indvars.iv.i
  %19 = load i32, ptr %18, align 4, !tbaa !3
  %20 = tail call i32 (ptr, ...) @printf(ptr noundef nonnull dereferenceable(1) @.str.1, i32 noundef %19)
  %indvars.iv.next.i = add nuw nsw i64 %indvars.iv.i, 1
  %21 = load i32, ptr %10, align 4
  %22 = lshr i32 %21, 29
  %23 = zext nneg i32 %22 to i64
  %24 = icmp samesign ult i64 %indvars.iv.next.i, %23
  br i1 %24, label %17, label %Dar_CutPrint.exit, !llvm.loop !7

Dar_CutPrint.exit:                                ; preds = %17, %14
  %puts.i = tail call i32 @puts(ptr nonnull dereferenceable(1) @str)
  %.pre = load i64, ptr %6, align 8
  br label %25

25:                                               ; preds = %Dar_CutPrint.exit, %.lr.ph
  %26 = phi i64 [ %.pre, %Dar_CutPrint.exit ], [ %9, %.lr.ph ]
  %27 = add nuw nsw i32 %.010, 1
  %28 = getelementptr inbounds nuw i8, ptr %.078, i64 24
  %29 = lshr i64 %26, 56
  %30 = trunc nuw nsw i64 %29 to i32
  %31 = icmp samesign ult i32 %27, %30
  br i1 %31, label %.lr.ph, label %._crit_edge, !llvm.loop !14

._crit_edge:                                      ; preds = %25, %2
  ret void
}